target datalayout = "e-m:e-p270:32:32-p271:32:32-p272:64:64-i64:64-i128:128-f80:128-n8:16:32:64-S128"
target triple = "x86_64-pc-linux-gnu"

%struct.JNIInvokeInterface_ = type { ptr, ptr, ptr, ptr, ptr, ptr, ptr, ptr }
%struct.JNINativeInterface_ = type { ptr, ptr, ptr, ptr, ptr, ptr, ptr, ptr, ptr, ptr, ptr, ptr, ptr, ptr, ptr, ptr, ptr, ptr, ptr, ptr, ptr, ptr, ptr, ptr, ptr, ptr, ptr, ptr, ptr, ptr, ptr, ptr, ptr, ptr, ptr, ptr, ptr, ptr, ptr, ptr, ptr, ptr, ptr, ptr, ptr, ptr, ptr, ptr, ptr, ptr, ptr, ptr, ptr, ptr, ptr, ptr, ptr, ptr, ptr, ptr, ptr, ptr, ptr, ptr, ptr, ptr, ptr, ptr, ptr, ptr, ptr, ptr, ptr, ptr, ptr, ptr, ptr, ptr, ptr, ptr, ptr, ptr, ptr, ptr, ptr, ptr, ptr, ptr, ptr, ptr, ptr, ptr, ptr, ptr, ptr, ptr, ptr, ptr, ptr, ptr, ptr, ptr, ptr, ptr, ptr, ptr, ptr, ptr, ptr, ptr, ptr, ptr, ptr, ptr, ptr, ptr, ptr, ptr, ptr, ptr, ptr, ptr, ptr, ptr, ptr, ptr, ptr, ptr, ptr, ptr, ptr, ptr, ptr, ptr, ptr, ptr, ptr, ptr, ptr, ptr, ptr, ptr, ptr, ptr, ptr, ptr, ptr, ptr, ptr, ptr, ptr, ptr, ptr, ptr, ptr, ptr, ptr, ptr, ptr, ptr, ptr, ptr, ptr, ptr, ptr, ptr, ptr, ptr, ptr, ptr, ptr, ptr, ptr, ptr, ptr, ptr, ptr, ptr, ptr, ptr, ptr, ptr, ptr, ptr, ptr, ptr, ptr, ptr, ptr, ptr, ptr, ptr, ptr, ptr, ptr, ptr, ptr, ptr, ptr, ptr, ptr, ptr, ptr, ptr, ptr, ptr, ptr, ptr, ptr, ptr, ptr, ptr, ptr, ptr, ptr, ptr, ptr, ptr, ptr, ptr, ptr, ptr, ptr, ptr, ptr, ptr, ptr, ptr, ptr, ptr, ptr, ptr, ptr, ptr, ptr }

@IPv4_available = internal global i32 0, align 4
@IPv6_available = internal global i32 0, align 4
@REUSEPORT_available = internal global i32 0, align 4
@.str = private unnamed_addr constant [18 x i8] c"java/lang/Boolean\00", align 1
@.str.1 = private unnamed_addr constant [11 x i8] c"getBoolean\00", align 1
@.str.2 = private unnamed_addr constant [22 x i8] c"(Ljava/lang/String;)Z\00", align 1
@.str.3 = private unnamed_addr constant [25 x i8] c"java.net.preferIPv4Stack\00", align 1

; Function Attrs: nounwind uwtable
define i32 @JNI_OnLoad(ptr noundef %0, ptr noundef %1) #0 {
  %3 = alloca i32, align 4
  %4 = alloca ptr, align 8
  %5 = alloca ptr, align 8
  %6 = alloca ptr, align 8
  %7 = alloca ptr, align 8
  %8 = alloca ptr, align 8
  %9 = alloca ptr, align 8
  %10 = alloca i32, align 4
  store ptr %0, ptr %4, align 8
  store ptr %1, ptr %5, align 8
  %11 = load ptr, ptr %4, align 8
  %12 = load ptr, ptr %11, align 8
  %13 = getelementptr inbounds %struct.JNIInvokeInterface_, ptr %12, i32 0, i32 6
  %14 = load ptr, ptr %13, align 8
  %15 = load ptr, ptr %4, align 8
  %16 = call i32 %14(ptr noundef %15, ptr noundef %6, i32 noundef 65538)
  %17 = icmp ne i32 %16, 0
  br i1 %17, label %18, label %19

18:                                               ; preds = %2
  store i32 -3, ptr %3, align 4
  br label %76

19:                                               ; preds = %2
  %20 = load ptr, ptr %6, align 8
  %21 = load ptr, ptr %20, align 8
  %22 = getelementptr inbounds %struct.JNINativeInterface_, ptr %21, i32 0, i32 6
  %23 = load ptr, ptr %22, align 8
  %24 = load ptr, ptr %6, align 8
  %25 = call ptr %23(ptr noundef %24, ptr noundef @.str)
  store ptr %25, ptr %7, align 8
  br label %26

26:                                               ; preds = %19
  %27 = load ptr, ptr %7, align 8
  %28 = icmp eq ptr %27, null
  br i1 %28, label %29, label %30

29:                                               ; preds = %26
  store i32 65538, ptr %3, align 4
  br label %76

30:                                               ; preds = %26
  br label %31

31:                                               ; preds = %30
  %32 = load ptr, ptr %6, align 8
  %33 = load ptr, ptr %32, align 8
  %34 = getelementptr inbounds %struct.JNINativeInterface_, ptr %33, i32 0, i32 113
  %35 = load ptr, ptr %34, align 8
  %36 = load ptr, ptr %6, align 8
  %37 = load ptr, ptr %7, align 8
  %38 = call ptr %35(ptr noundef %36, ptr noundef %37, ptr noundef @.str.1, ptr noundef @.str.2)
  store ptr %38, ptr %8, align 8
  br label %39

39:                                               ; preds = %31
  %40 = load ptr, ptr %8, align 8
  %41 = icmp eq ptr %40, null
  br i1 %41, label %42, label %43

42:                                               ; preds = %39
  store i32 65538, ptr %3, align 4
  br label %76

43:                                               ; preds = %39
  br label %44

44:                                               ; preds = %43
  %45 = load ptr, ptr %6, align 8
  %46 = load ptr, ptr %45, align 8
  %47 = getelementptr inbounds %struct.JNINativeInterface_, ptr %46, i32 0, i32 167
  %48 = load ptr, ptr %47, align 8
  %49 = load ptr, ptr %6, align 8
  %50 = call ptr %48(ptr noundef %49, ptr noundef @.str.3)
  store ptr %50, ptr %9, align 8
  br label %51

51:                                               ; preds = %44
  %52 = load ptr, ptr %9, align 8
  %53 = icmp eq ptr %52, null
  br i1 %53, label %54, label %55

54:                                               ; preds = %51
  store i32 65538, ptr %3, align 4
  br label %76

55:                                               ; preds = %51
  br label %56

56:                                               ; preds = %55
  %57 = load ptr, ptr %6, align 8
  %58 = load ptr, ptr %57, align 8
  %59 = getelementptr inbounds %struct.JNINativeInterface_, ptr %58, i32 0, i32 117
  %60 = load ptr, ptr %59, align 8
  %61 = load ptr, ptr %6, align 8
  %62 = load ptr, ptr %7, align 8
  %63 = load ptr, ptr %8, align 8
  %64 = load ptr, ptr %9, align 8
  %65 = call zeroext i8 (ptr, ptr, ptr, ...) %60(ptr noundef %61, ptr noundef %62, ptr noundef %63, ptr noundef %64)
  %66 = zext i8 %65 to i32
  store i32 %66, ptr %10, align 4
  %67 = call i32 (...) @IPv4_supported()
  store i32 %67, ptr @IPv4_available, align 4
  %68 = call i32 (...) @IPv6_supported()
  %69 = load i32, ptr %10, align 4
  %70 = icmp ne i32 %69, 0
  %71 = xor i1 %70, true
  %72 = zext i1 %71 to i32
  %73 = and i32 %68, %72
  store i32 %73, ptr @IPv6_available, align 4
  %74 = load i32, ptr @IPv6_available, align 4
  %75 = call i32 @reuseport_supported(i32 noundef %74)
  store i32 %75, ptr @REUSEPORT_available, align 4
  store i32 65538, ptr %3, align 4
  br label %76

76:                                               ; preds = %56, %54, %42, %29, %18
  %77 = load i32, ptr %3, align 4
  ret i32 %77
}