; Function Attrs: nounwind uwtable
define range(i32 -3, 65539) i32 @JNI_OnLoad(ptr noundef %0, ptr nocapture noundef readnone %1) local_unnamed_addr #1 {
  %3 = alloca ptr, align 8
  %4 = load ptr, ptr %0, align 8
  %5 = getelementptr inbounds i8, ptr %4, i64 48
  %6 = load ptr, ptr %5, align 8
  %7 = call i32 %6(ptr noundef nonnull %0, ptr noundef nonnull %3, i32 noundef 65538) #7
  %.not = icmp eq i32 %7, 0
  br i1 %.not, label %8, label %40

8:                                                ; preds = %2
  %9 = load ptr, ptr %3, align 8
  %10 = load ptr, ptr %9, align 8
  %11 = getelementptr inbounds i8, ptr %10, i64 48
  %12 = load ptr, ptr %11, align 8
  %13 = call ptr %12(ptr noundef nonnull %9, ptr noundef nonnull @.str) #7
  %14 = icmp eq ptr %13, null
  br i1 %14, label %40, label %15

15:                                               ; preds = %8
  %16 = load ptr, ptr %3, align 8
  %17 = load ptr, ptr %16, align 8
  %18 = getelementptr inbounds i8, ptr %17, i64 904
  %19 = load ptr, ptr %18, align 8
  %20 = call ptr %19(ptr noundef nonnull %16, ptr noundef nonnull %13, ptr noundef nonnull @.str.1, ptr noundef nonnull @.str.2) #7
  %21 = icmp eq ptr %20, null
  br i1 %21, label %40, label %22

22:                                               ; preds = %15
  %23 = load ptr, ptr %3, align 8
  %24 = load ptr, ptr %23, align 8
  %25 = getelementptr inbounds i8, ptr %24, i64 1336
  %26 = load ptr, ptr %25, align 8
  %27 = call ptr %26(ptr noundef nonnull %23, ptr noundef nonnull @.str.3) #7
  %28 = icmp eq ptr %27, null
  br i1 %28, label %40, label %29

29:                                               ; preds = %22
  %30 = load ptr, ptr %3, align 8
  %31 = load ptr, ptr %30, align 8
  %32 = getelementptr inbounds i8, ptr %31, i64 936
  %33 = load ptr, ptr %32, align 8
  %34 = call zeroext i8 (ptr, ptr, ptr, ...) %33(ptr noundef nonnull %30, ptr noundef nonnull %13, ptr noundef nonnull %20, ptr noundef nonnull %27) #7
  %35 = call i32 (...) @IPv4_supported() #7
  store i32 %35, ptr @IPv4_available, align 4
  %36 = call i32 (...) @IPv6_supported() #7
  %.not13 = icmp eq i8 %34, 0
  %37 = and i32 %36, 1
  %38 = select i1 %.not13, i32 %37, i32 0
  store i32 %38, ptr @IPv6_available, align 4
  %39 = call i32 @reuseport_supported(i32 noundef %38) #7
  store i32 %39, ptr @REUSEPORT_available, align 4
  br label %40

40:                                               ; preds = %22, %15, %8, %2, %29
  %.0 = phi i32 [ 65538, %29 ], [ -3, %2 ], [ 65538, %8 ], [ 65538, %15 ], [ 65538, %22 ]
  ret i32 %.0
}